target datalayout = "e-m:e-p270:32:32-p271:32:32-p272:64:64-i64:64-i128:128-f80:128-n8:16:32:64-S128"
target triple = "x86_64-pc-linux-gnu"

%struct.DdManager = type { %struct.DdNode, ptr, ptr, ptr, ptr, ptr, ptr, ptr, i32, i32, double, double, double, i32, i32, i32, i32, i32, i32, ptr, ptr, %struct.DdSubtable, i32, i32, i32, i32, i32, i32, i32, double, i32, i32, i32, ptr, i64, double, i32, ptr, ptr, ptr, ptr, ptr, ptr, ptr, i32, ptr, ptr, ptr, ptr, ptr, ptr, i32, i32, i32, double, i32, i32, i32, i32, double, double, i32, i32, i32, i32, i32, i32, i32, i32, i32, ptr, ptr, i32, i32, i32, i32, i32, i32, ptr, ptr, ptr, ptr, ptr, ptr, ptr, ptr, i32, i64, i64, i64, i32, i64, i64, double, double, double, double, double, double, i32, ptr, ptr, i64 }
%struct.DdNode = type { i32, i32, ptr, %union.anon, i64 }
%union.anon = type { %struct.DdChildren }
%struct.DdChildren = type { ptr, ptr }
%struct.DdSubtable = type { ptr, i32, i32, i32, i32, i32, i32, i32, i32, i32, i32, i32 }

; Function Attrs: nounwind uwtable
define internal ptr @zdd_subset1_aux(ptr noundef %0, ptr noundef %1, ptr noundef %2) #0 {
  %4 = alloca ptr, align 8
  %5 = alloca ptr, align 8
  %6 = alloca ptr, align 8
  %7 = alloca ptr, align 8
  %8 = alloca i32, align 4
  %9 = alloca i32, align 4
  %10 = alloca ptr, align 8
  %11 = alloca ptr, align 8
  %12 = alloca ptr, align 8
  %13 = alloca ptr, align 8
  %14 = alloca i32, align 4
  store ptr %0, ptr %5, align 8, !tbaa !3
  store ptr %1, ptr %6, align 8, !tbaa !8
  store ptr %2, ptr %7, align 8, !tbaa !8
  call void @llvm.lifetime.start.p0(i64 4, ptr %8) #3
  call void @llvm.lifetime.start.p0(i64 4, ptr %9) #3
  call void @llvm.lifetime.start.p0(i64 8, ptr %10) #3
  call void @llvm.lifetime.start.p0(i64 8, ptr %11) #3
  call void @llvm.lifetime.start.p0(i64 8, ptr %12) #3
  call void @llvm.lifetime.start.p0(i64 8, ptr %13) #3
  %15 = load ptr, ptr %5, align 8, !tbaa !3
  %16 = getelementptr inbounds nuw %struct.DdManager, ptr %15, i32 0, i32 2
  %17 = load ptr, ptr %16, align 8, !tbaa !29
  store ptr %17, ptr %13, align 8, !tbaa !8
  %18 = load ptr, ptr %5, align 8, !tbaa !3
  %19 = load ptr, ptr %6, align 8, !tbaa !8
  %20 = load ptr, ptr %7, align 8, !tbaa !8
  %21 = call ptr @cuddCacheLookup2Zdd(ptr noundef %18, ptr noundef @zdd_subset1_aux, ptr noundef %19, ptr noundef %20)
  store ptr %21, ptr %10, align 8, !tbaa !8
  %22 = load ptr, ptr %10, align 8, !tbaa !8
  %23 = icmp ne ptr %22, null
  br i1 %23, label %24, label %26

24:                                               ; preds = %3
  %25 = load ptr, ptr %10, align 8, !tbaa !8
  store ptr %25, ptr %4, align 8
  store i32 1, ptr %14, align 4
  br label %146

26:                                               ; preds = %3
  %27 = load ptr, ptr %6, align 8, !tbaa !8
  %28 = getelementptr inbounds nuw %struct.DdNode, ptr %27, i32 0, i32 0
  %29 = load i32, ptr %28, align 8, !tbaa !30
  %30 = icmp eq i32 %29, 2147483647
  br i1 %30, label %31, label %38

31:                                               ; preds = %26
  %32 = load ptr, ptr %13, align 8, !tbaa !8
  store ptr %32, ptr %10, align 8, !tbaa !8
  %33 = load ptr, ptr %5, align 8, !tbaa !3
  %34 = load ptr, ptr %6, align 8, !tbaa !8
  %35 = load ptr, ptr %7, align 8, !tbaa !8
  %36 = load ptr, ptr %10, align 8, !tbaa !8
  call void @cuddCacheInsert2(ptr noundef %33, ptr noundef @zdd_subset1_aux, ptr noundef %34, ptr noundef %35, ptr noundef %36)
  %37 = load ptr, ptr %10, align 8, !tbaa !8
  store ptr %37, ptr %4, align 8
  store i32 1, ptr %14, align 4
  br label %146

38:                                               ; preds = %26
  %39 = load ptr, ptr %5, align 8, !tbaa !3
  %40 = getelementptr inbounds nuw %struct.DdManager, ptr %39, i32 0, i32 38
  %41 = load ptr, ptr %40, align 8, !tbaa !31
  %42 = load ptr, ptr %6, align 8, !tbaa !8
  %43 = getelementptr inbounds nuw %struct.DdNode, ptr %42, i32 0, i32 0
  %44 = load i32, ptr %43, align 8, !tbaa !30
  %45 = zext i32 %44 to i64
  %46 = getelementptr inbounds nuw i32, ptr %41, i64 %45
  %47 = load i32, ptr %46, align 4, !tbaa !32
  store i32 %47, ptr %8, align 4, !tbaa !32
  %48 = load ptr, ptr %5, align 8, !tbaa !3
  %49 = getelementptr inbounds nuw %struct.DdManager, ptr %48, i32 0, i32 38
  %50 = load ptr, ptr %49, align 8, !tbaa !31
  %51 = load ptr, ptr %7, align 8, !tbaa !8
  %52 = getelementptr inbounds nuw %struct.DdNode, ptr %51, i32 0, i32 0
  %53 = load i32, ptr %52, align 8, !tbaa !30
  %54 = zext i32 %53 to i64
  %55 = getelementptr inbounds nuw i32, ptr %50, i64 %54
  %56 = load i32, ptr %55, align 4, !tbaa !32
  store i32 %56, ptr %9, align 4, !tbaa !32
  %57 = load i32, ptr %8, align 4, !tbaa !32
  %58 = load i32, ptr %9, align 4, !tbaa !32
  %59 = icmp sgt i32 %57, %58
  br i1 %59, label %60, label %62

60:                                               ; preds = %38
  %61 = load ptr, ptr %13, align 8, !tbaa !8
  store ptr %61, ptr %10, align 8, !tbaa !8
  br label %140

62:                                               ; preds = %38
  %63 = load i32, ptr %8, align 4, !tbaa !32
  %64 = load i32, ptr %9, align 4, !tbaa !32
  %65 = icmp eq i32 %63, %64
  br i1 %65, label %66, label %71

66:                                               ; preds = %62
  %67 = load ptr, ptr %6, align 8, !tbaa !8
  %68 = getelementptr inbounds nuw %struct.DdNode, ptr %67, i32 0, i32 3
  %69 = getelementptr inbounds nuw %struct.DdChildren, ptr %68, i32 0, i32 0
  %70 = load ptr, ptr %69, align 8, !tbaa !35
  store ptr %70, ptr %10, align 8, !tbaa !8
  br label %139

71:                                               ; preds = %62
  %72 = load ptr, ptr %5, align 8, !tbaa !3
  %73 = load ptr, ptr %6, align 8, !tbaa !8
  %74 = getelementptr inbounds nuw %struct.DdNode, ptr %73, i32 0, i32 3
  %75 = getelementptr inbounds nuw %struct.DdChildren, ptr %74, i32 0, i32 0
  %76 = load ptr, ptr %75, align 8, !tbaa !35
  %77 = load ptr, ptr %7, align 8, !tbaa !8
  %78 = call ptr @zdd_subset1_aux(ptr noundef %72, ptr noundef %76, ptr noundef %77)
  store ptr %78, ptr %11, align 8, !tbaa !8
  %79 = load ptr, ptr %11, align 8, !tbaa !8
  %80 = icmp eq ptr %79, null
  br i1 %80, label %81, label %82

81:                                               ; preds = %71
  store ptr null, ptr %4, align 8
  store i32 1, ptr %14, align 4
  br label %146

82:                                               ; preds = %71
  %83 = load ptr, ptr %11, align 8, !tbaa !8
  %84 = ptrtoint ptr %83 to i64
  %85 = and i64 %84, -2
  %86 = inttoptr i64 %85 to ptr
  %87 = getelementptr inbounds nuw %struct.DdNode, ptr %86, i32 0, i32 1
  %88 = load i32, ptr %87, align 4, !tbaa !36
  %89 = add i32 %88, 1
  store i32 %89, ptr %87, align 4, !tbaa !36
  %90 = load ptr, ptr %5, align 8, !tbaa !3
  %91 = load ptr, ptr %6, align 8, !tbaa !8
  %92 = getelementptr inbounds nuw %struct.DdNode, ptr %91, i32 0, i32 3
  %93 = getelementptr inbounds nuw %struct.DdChildren, ptr %92, i32 0, i32 1
  %94 = load ptr, ptr %93, align 8, !tbaa !35
  %95 = load ptr, ptr %7, align 8, !tbaa !8
  %96 = call ptr @zdd_subset1_aux(ptr noundef %90, ptr noundef %94, ptr noundef %95)
  store ptr %96, ptr %12, align 8, !tbaa !8
  %97 = load ptr, ptr %12, align 8, !tbaa !8
  %98 = icmp eq ptr %97, null
  br i1 %98, label %99, label %102

99:                                               ; preds = %82
  %100 = load ptr, ptr %5, align 8, !tbaa !3
  %101 = load ptr, ptr %11, align 8, !tbaa !8
  call void @Cudd_RecursiveDerefZdd(ptr noundef %100, ptr noundef %101)
  store ptr null, ptr %4, align 8
  store i32 1, ptr %14, align 4
  br label %146

102:                                              ; preds = %82
  %103 = load ptr, ptr %12, align 8, !tbaa !8
  %104 = ptrtoint ptr %103 to i64
  %105 = and i64 %104, -2
  %106 = inttoptr i64 %105 to ptr
  %107 = getelementptr inbounds nuw %struct.DdNode, ptr %106, i32 0, i32 1
  %108 = load i32, ptr %107, align 4, !tbaa !36
  %109 = add i32 %108, 1
  store i32 %109, ptr %107, align 4, !tbaa !36
  %110 = load ptr, ptr %5, align 8, !tbaa !3
  %111 = load ptr, ptr %6, align 8, !tbaa !8
  %112 = getelementptr inbounds nuw %struct.DdNode, ptr %111, i32 0, i32 0
  %113 = load i32, ptr %112, align 8, !tbaa !30
  %114 = load ptr, ptr %11, align 8, !tbaa !8
  %115 = load ptr, ptr %12, align 8, !tbaa !8
  %116 = call ptr @cuddZddGetNode(ptr noundef %110, i32 noundef %113, ptr noundef %114, ptr noundef %115)
  store ptr %116, ptr %10, align 8, !tbaa !8
  %117 = load ptr, ptr %10, align 8, !tbaa !8
  %118 = icmp eq ptr %117, null
  br i1 %118, label %119, label %124

119:                                              ; preds = %102
  %120 = load ptr, ptr %5, align 8, !tbaa !3
  %121 = load ptr, ptr %11, align 8, !tbaa !8
  call void @Cudd_RecursiveDerefZdd(ptr noundef %120, ptr noundef %121)
  %122 = load ptr, ptr %5, align 8, !tbaa !3
  %123 = load ptr, ptr %12, align 8, !tbaa !8
  call void @Cudd_RecursiveDerefZdd(ptr noundef %122, ptr noundef %123)
  store ptr null, ptr %4, align 8
  store i32 1, ptr %14, align 4
  br label %146

124:                                              ; preds = %102
  %125 = load ptr, ptr %11, align 8, !tbaa !8
  %126 = ptrtoint ptr %125 to i64
  %127 = and i64 %126, -2
  %128 = inttoptr i64 %127 to ptr
  %129 = getelementptr inbounds nuw %struct.DdNode, ptr %128, i32 0, i32 1
  %130 = load i32, ptr %129, align 4, !tbaa !36
  %131 = add i32 %130, -1
  store i32 %131, ptr %129, align 4, !tbaa !36
  %132 = load ptr, ptr %12, align 8, !tbaa !8
  %133 = ptrtoint ptr %132 to i64
  %134 = and i64 %133, -2
  %135 = inttoptr i64 %134 to ptr
  %136 = getelementptr inbounds nuw %struct.DdNode, ptr %135, i32 0, i32 1
  %137 = load i32, ptr %136, align 4, !tbaa !36
  %138 = add i32 %137, -1
  store i32 %138, ptr %136, align 4, !tbaa !36
  br label %139

139:                                              ; preds = %124, %66
  br label %140

140:                                              ; preds = %139, %60
  %141 = load ptr, ptr %5, align 8, !tbaa !3
  %142 = load ptr, ptr %6, align 8, !tbaa !8
  %143 = load ptr, ptr %7, align 8, !tbaa !8
  %144 = load ptr, ptr %10, align 8, !tbaa !8
  call void @cuddCacheInsert2(ptr noundef %141, ptr noundef @zdd_subset1_aux, ptr noundef %142, ptr noundef %143, ptr noundef %144)
  %145 = load ptr, ptr %10, align 8, !tbaa !8
  store ptr %145, ptr %4, align 8
  store i32 1, ptr %14, align 4
  br label %146

146:                                              ; preds = %140, %119, %99, %81, %31, %24
  call void @llvm.lifetime.end.p0(i64 8, ptr %13) #3
  call void @llvm.lifetime.end.p0(i64 8, ptr %12) #3
  call void @llvm.lifetime.end.p0(i64 8, ptr %11) #3
  call void @llvm.lifetime.end.p0(i64 8, ptr %10) #3
  call void @llvm.lifetime.end.p0(i64 4, ptr %9) #3
  call void @llvm.lifetime.end.p0(i64 4, ptr %8) #3
  %147 = load ptr, ptr %4, align 8
  ret ptr %147
}