; Function Attrs: nounwind uwtable
define internal ptr @zdd_subset1_aux(ptr noundef %0, ptr noundef %1, ptr noundef %2) #0 {
  %4 = getelementptr inbounds nuw i8, ptr %0, i64 48
  %5 = load ptr, ptr %4, align 8, !tbaa !26
  %6 = tail call ptr @cuddCacheLookup2Zdd(ptr noundef %0, ptr noundef nonnull @zdd_subset1_aux, ptr noundef %1, ptr noundef %2) #3
  %.not = icmp eq ptr %6, null
  br i1 %.not, label %7, label %58

7:                                                ; preds = %3
  %8 = load i32, ptr %1, align 8, !tbaa !27
  %9 = icmp eq i32 %8, 2147483647
  br i1 %9, label %10, label %11

10:                                               ; preds = %7
  tail call void @cuddCacheInsert2(ptr noundef nonnull %0, ptr noundef nonnull @zdd_subset1_aux, ptr noundef nonnull %1, ptr noundef %2, ptr noundef %5) #3
  br label %58

11:                                               ; preds = %7
  %12 = getelementptr inbounds nuw i8, ptr %0, i64 320
  %13 = load ptr, ptr %12, align 8, !tbaa !28
  %14 = zext i32 %8 to i64
  %15 = getelementptr inbounds nuw i32, ptr %13, i64 %14
  %16 = load i32, ptr %15, align 4, !tbaa !29
  %17 = load i32, ptr %2, align 8, !tbaa !27
  %18 = zext i32 %17 to i64
  %19 = getelementptr inbounds nuw i32, ptr %13, i64 %18
  %20 = load i32, ptr %19, align 4, !tbaa !29
  %21 = icmp sgt i32 %16, %20
  br i1 %21, label %57, label %22

22:                                               ; preds = %11
  %23 = icmp eq i32 %16, %20
  %24 = getelementptr inbounds nuw i8, ptr %1, i64 16
  %25 = load ptr, ptr %24, align 8, !tbaa !32
  br i1 %23, label %57, label %26

26:                                               ; preds = %22
  %27 = tail call ptr @zdd_subset1_aux(ptr noundef nonnull %0, ptr noundef %25, ptr noundef nonnull %2)
  %28 = icmp eq ptr %27, null
  br i1 %28, label %58, label %29

29:                                               ; preds = %26
  %30 = ptrtoint ptr %27 to i64
  %31 = and i64 %30, -2
  %32 = inttoptr i64 %31 to ptr
  %33 = getelementptr inbounds nuw i8, ptr %32, i64 4
  %34 = load i32, ptr %33, align 4, !tbaa !33
  %35 = add i32 %34, 1
  store i32 %35, ptr %33, align 4, !tbaa !33
  %36 = getelementptr inbounds nuw i8, ptr %1, i64 24
  %37 = load ptr, ptr %36, align 8, !tbaa !32
  %38 = tail call ptr @zdd_subset1_aux(ptr noundef nonnull %0, ptr noundef %37, ptr noundef nonnull %2)
  %39 = icmp eq ptr %38, null
  br i1 %39, label %40, label %41

40:                                               ; preds = %29
  tail call void @Cudd_RecursiveDerefZdd(ptr noundef nonnull %0, ptr noundef nonnull %27) #3
  br label %58

41:                                               ; preds = %29
  %42 = ptrtoint ptr %38 to i64
  %43 = and i64 %42, -2
  %44 = inttoptr i64 %43 to ptr
  %45 = getelementptr inbounds nuw i8, ptr %44, i64 4
  %46 = load i32, ptr %45, align 4, !tbaa !33
  %47 = add i32 %46, 1
  store i32 %47, ptr %45, align 4, !tbaa !33
  %48 = load i32, ptr %1, align 8, !tbaa !27
  %49 = tail call ptr @cuddZddGetNode(ptr noundef nonnull %0, i32 noundef %48, ptr noundef nonnull %27, ptr noundef nonnull %38) #3
  %50 = icmp eq ptr %49, null
  br i1 %50, label %51, label %52

51:                                               ; preds = %41
  tail call void @Cudd_RecursiveDerefZdd(ptr noundef nonnull %0, ptr noundef nonnull %27) #3
  tail call void @Cudd_RecursiveDerefZdd(ptr noundef nonnull %0, ptr noundef nonnull %38) #3
  br label %58

52:                                               ; preds = %41
  %53 = load i32, ptr %33, align 4, !tbaa !33
  %54 = add i32 %53, -1
  store i32 %54, ptr %33, align 4, !tbaa !33
  %55 = load i32, ptr %45, align 4, !tbaa !33
  %56 = add i32 %55, -1
  store i32 %56, ptr %45, align 4, !tbaa !33
  br label %57

57:                                               ; preds = %22, %11, %52
  %.051 = phi ptr [ %49, %52 ], [ %5, %11 ], [ %25, %22 ]
  tail call void @cuddCacheInsert2(ptr noundef nonnull %0, ptr noundef nonnull @zdd_subset1_aux, ptr noundef nonnull %1, ptr noundef nonnull %2, ptr noundef %.051) #3
  br label %58

58:                                               ; preds = %26, %3, %57, %51, %40, %10
  %.0 = phi ptr [ %5, %10 ], [ %.051, %57 ], [ null, %40 ], [ null, %51 ], [ %6, %3 ], [ null, %26 ]
  ret ptr %.0
}